target datalayout = "e-m:e-p270:32:32-p271:32:32-p272:64:64-i64:64-i128:128-f80:128-n8:16:32:64-S128"
target triple = "x86_64-pc-linux-gnu"

%struct.XLogPageReadPrivate = type { ptr, i32 }
%struct.XLogReaderRoutine = type { ptr, ptr, ptr }
%struct.XLogReaderState = type { %struct.XLogReaderRoutine, i64, ptr, i64, i64, i64, i64, i64, i64, i64, i64, ptr, ptr, i64, i8, ptr, ptr, ptr, ptr, ptr, i32, %struct.WALSegmentContext, %struct.WALOpenSegment, i32, i64, i32, i64, i32, i64, i32, ptr, i32, ptr, i8, i8 }
%struct.WALSegmentContext = type { [1024 x i8], i32 }
%struct.WALOpenSegment = type { i32, i64, i32 }
%struct.RelFileLocator = type { i32, i32, i32 }
%struct.DecodedXLogRecord = type { i64, i8, ptr, i64, i64, %struct.XLogRecord, i16, i32, ptr, i32, i32, [0 x %struct.DecodedBkpBlock] }
%struct.XLogRecord = type { i32, i32, i64, i8, i8, i32 }
%struct.DecodedBkpBlock = type { i8, %struct.RelFileLocator, i32, i32, i32, i8, i8, i8, ptr, i16, i16, i16, i8, i8, ptr, i16, i16 }
%struct.CheckPoint = type { i64, i32, i32, i8, i32, %struct.FullTransactionId, i32, i32, i32, i32, i32, i32, i32, i64, i32, i32, i32 }
%struct.FullTransactionId = type { i64 }

@WalSegSz = external global i32, align 4
@.str = private unnamed_addr constant [55 x i8] c"out of memory while allocating a WAL reading processor\00", align 1
@xlogreadfd = internal global i32 -1, align 4
@.str.4 = private unnamed_addr constant [48 x i8] c"could not find previous WAL record at %X/%X: %s\00", align 1
@.str.5 = private unnamed_addr constant [44 x i8] c"could not find previous WAL record at %X/%X\00", align 1
@.str.6 = private unnamed_addr constant [8 x i8] c"pg_wal/\00", align 1
@.str.7 = private unnamed_addr constant [13 x i8] c"%08X%08X%08X\00", align 1

; Function Attrs: inlinehint nounwind uwtable
define internal void @XLogFileName(ptr noundef %0, i32 noundef %1, i64 noundef %2, i32 noundef %3) #4 {
  %5 = alloca ptr, align 8
  %6 = alloca i32, align 4
  %7 = alloca i64, align 8
  %8 = alloca i32, align 4
  store ptr %0, ptr %5, align 8
  store i32 %1, ptr %6, align 4
  store i64 %2, ptr %7, align 8
  store i32 %3, ptr %8, align 4
  %9 = load ptr, ptr %5, align 8
  %10 = load i32, ptr %6, align 4
  %11 = load i64, ptr %7, align 8
  %12 = load i32, ptr %8, align 4
  %13 = sext i32 %12 to i64
  %14 = udiv i64 4294967296, %13
  %15 = udiv i64 %11, %14
  %16 = trunc i64 %15 to i32
  %17 = load i64, ptr %7, align 8
  %18 = load i32, ptr %8, align 4
  %19 = sext i32 %18 to i64
  %20 = udiv i64 4294967296, %19
  %21 = urem i64 %17, %20
  %22 = trunc i64 %21 to i32
  %23 = call i32 (ptr, i64, ptr, ...) @pg_snprintf(ptr noundef %9, i64 noundef 64, ptr noundef @.str.7, i32 noundef %10, i32 noundef %16, i32 noundef %22)
  ret void
}

; Function Attrs: nounwind uwtable
define dso_local void @findLastCheckpoint(ptr noundef %0, i64 noundef %1, i32 noundef %2, ptr noundef %3, ptr noundef %4, ptr noundef %5, ptr noundef %6) #0 {
  %8 = alloca ptr, align 8
  %9 = alloca i64, align 8
  %10 = alloca i32, align 4
  %11 = alloca ptr, align 8
  %12 = alloca ptr, align 8
  %13 = alloca ptr, align 8
  %14 = alloca ptr, align 8
  %15 = alloca ptr, align 8
  %16 = alloca i64, align 8
  %17 = alloca ptr, align 8
  %18 = alloca ptr, align 8
  %19 = alloca %struct.XLogPageReadPrivate, align 8
  %20 = alloca i64, align 8
  %21 = alloca i32, align 4
  %22 = alloca %struct.XLogReaderRoutine, align 8
  %23 = alloca i8, align 1
  %24 = alloca i32, align 4
  %25 = alloca i32, align 4
  %26 = alloca [64 x i8], align 16
  %27 = alloca %struct.CheckPoint, align 8
  %28 = alloca i32, align 4
  store ptr %0, ptr %8, align 8
  store i64 %1, ptr %9, align 8
  store i32 %2, ptr %10, align 4
  store ptr %3, ptr %11, align 8
  store ptr %4, ptr %12, align 8
  store ptr %5, ptr %13, align 8
  store ptr %6, ptr %14, align 8
  call void @llvm.lifetime.start.p0(i64 8, ptr %15) #8
  call void @llvm.lifetime.start.p0(i64 8, ptr %16) #8
  call void @llvm.lifetime.start.p0(i64 8, ptr %17) #8
  call void @llvm.lifetime.start.p0(i64 8, ptr %18) #8
  call void @llvm.lifetime.start.p0(i64 16, ptr %19) #8
  call void @llvm.lifetime.start.p0(i64 8, ptr %20) #8
  store i64 0, ptr %20, align 8
  call void @llvm.lifetime.start.p0(i64 4, ptr %21) #8
  store i32 0, ptr %21, align 4
  %29 = load i64, ptr %9, align 8
  %30 = urem i64 %29, 8192
  %31 = icmp eq i64 %30, 0
  br i1 %31, label %32, label %46

32:                                               ; preds = %7
  %33 = load i64, ptr %9, align 8
  %34 = load i32, ptr @WalSegSz, align 4
  %35 = sub i32 %34, 1
  %36 = sext i32 %35 to i64
  %37 = and i64 %33, %36
  %38 = icmp eq i64 %37, 0
  br i1 %38, label %39, label %42

39:                                               ; preds = %32
  %40 = load i64, ptr %9, align 8
  %41 = add i64 %40, 40
  store i64 %41, ptr %9, align 8
  br label %45

42:                                               ; preds = %32
  %43 = load i64, ptr %9, align 8
  %44 = add i64 %43, 24
  store i64 %44, ptr %9, align 8
  br label %45

45:                                               ; preds = %42, %39
  br label %46

46:                                               ; preds = %45, %7
  %47 = load i32, ptr %10, align 4
  %48 = getelementptr inbounds nuw %struct.XLogPageReadPrivate, ptr %19, i32 0, i32 1
  store i32 %47, ptr %48, align 8
  %49 = load ptr, ptr %14, align 8
  %50 = getelementptr inbounds nuw %struct.XLogPageReadPrivate, ptr %19, i32 0, i32 0
  store ptr %49, ptr %50, align 8
  %51 = load i32, ptr @WalSegSz, align 4
  %52 = load ptr, ptr %8, align 8
  %53 = getelementptr inbounds nuw %struct.XLogReaderRoutine, ptr %22, i32 0, i32 0
  store ptr @SimpleXLogPageRead, ptr %53, align 8
  %54 = getelementptr inbounds nuw %struct.XLogReaderRoutine, ptr %22, i32 0, i32 1
  store ptr null, ptr %54, align 8
  %55 = getelementptr inbounds nuw %struct.XLogReaderRoutine, ptr %22, i32 0, i32 2
  store ptr null, ptr %55, align 8
  %56 = call ptr @XLogReaderAllocate(i32 noundef %51, ptr noundef %52, ptr noundef %22, ptr noundef %19)
  store ptr %56, ptr %17, align 8
  %57 = load ptr, ptr %17, align 8
  %58 = icmp eq ptr %57, null
  br i1 %58, label %59, label %63

59:                                               ; preds = %46
  br label %60

60:                                               ; preds = %59
  call void (i32, i32, ptr, ...) @pg_log_generic(i32 noundef 4, i32 noundef 0, ptr noundef @.str)
  call void @exit(i32 noundef 1) #9
  unreachable

61:                                               ; No predecessors!
  br label %62

62:                                               ; preds = %61
  br label %63

63:                                               ; preds = %62, %46
  %64 = load i64, ptr %9, align 8
  store i64 %64, ptr %16, align 8
  br label %65

65:                                               ; preds = %182, %63
  call void @llvm.lifetime.start.p0(i64 1, ptr %23) #8
  %66 = load ptr, ptr %17, align 8
  %67 = load i64, ptr %16, align 8
  call void @XLogBeginRead(ptr noundef %66, i64 noundef %67)
  %68 = load ptr, ptr %17, align 8
  %69 = call ptr @XLogReadRecord(ptr noundef %68, ptr noundef %18)
  store ptr %69, ptr %15, align 8
  %70 = load ptr, ptr %15, align 8
  %71 = icmp eq ptr %70, null
  br i1 %71, label %72, label %101

72:                                               ; preds = %65
  %73 = load ptr, ptr %18, align 8
  %74 = icmp ne ptr %73, null
  br i1 %74, label %75, label %88

75:                                               ; preds = %72
  br label %76

76:                                               ; preds = %75
  br label %77

77:                                               ; preds = %76
  br label %78

78:                                               ; preds = %77
  br label %79

79:                                               ; preds = %78
  store i32 1, ptr %24, align 4
  %80 = load i64, ptr %16, align 8
  %81 = lshr i64 %80, 32
  %82 = trunc i64 %81 to i32
  %83 = load i64, ptr %16, align 8
  %84 = trunc i64 %83 to i32
  %85 = load ptr, ptr %18, align 8
  call void (i32, i32, ptr, ...) @pg_log_generic(i32 noundef 4, i32 noundef 0, ptr noundef @.str.4, i32 noundef %82, i32 noundef %84, ptr noundef %85)
  call void @exit(i32 noundef 1) #9
  unreachable

86:                                               ; No predecessors!
  br label %87

87:                                               ; preds = %86
  br label %100

88:                                               ; preds = %72
  br label %89

89:                                               ; preds = %88
  br label %90

90:                                               ; preds = %89
  br label %91

91:                                               ; preds = %90
  br label %92

92:                                               ; preds = %91
  store i32 1, ptr %25, align 4
  %93 = load i64, ptr %16, align 8
  %94 = lshr i64 %93, 32
  %95 = trunc i64 %94 to i32
  %96 = load i64, ptr %16, align 8
  %97 = trunc i64 %96 to i32
  call void (i32, i32, ptr, ...) @pg_log_generic(i32 noundef 4, i32 noundef 0, ptr noundef @.str.5, i32 noundef %95, i32 noundef %97)
  call void @exit(i32 noundef 1) #9
  unreachable

98:                                               ; No predecessors!
  br label %99

99:                                               ; preds = %98
  br label %100

100:                                              ; preds = %99, %87
  br label %101

101:                                              ; preds = %100, %65
  %102 = load ptr, ptr %17, align 8
  %103 = getelementptr inbounds nuw %struct.XLogReaderState, ptr %102, i32 0, i32 22
  %104 = getelementptr inbounds nuw %struct.WALOpenSegment, ptr %103, i32 0, i32 2
  %105 = load i32, ptr %104, align 8
  %106 = load i32, ptr %21, align 4
  %107 = icmp ne i32 %105, %106
  br i1 %107, label %115, label %108

108:                                              ; preds = %101
  %109 = load ptr, ptr %17, align 8
  %110 = getelementptr inbounds nuw %struct.XLogReaderState, ptr %109, i32 0, i32 22
  %111 = getelementptr inbounds nuw %struct.WALOpenSegment, ptr %110, i32 0, i32 1
  %112 = load i64, ptr %111, align 8
  %113 = load i64, ptr %20, align 8
  %114 = icmp ne i64 %112, %113
  br i1 %114, label %115, label %132

115:                                              ; preds = %108, %101
  call void @llvm.lifetime.start.p0(i64 64, ptr %26) #8
  %116 = getelementptr inbounds [64 x i8], ptr %26, i64 0, i64 0
  %117 = call i32 (ptr, i64, ptr, ...) @pg_snprintf(ptr noundef %116, i64 noundef 64, ptr noundef @.str.6)
  %118 = load ptr, ptr %17, align 8
  %119 = getelementptr inbounds nuw %struct.XLogReaderState, ptr %118, i32 0, i32 22
  %120 = getelementptr inbounds nuw %struct.WALOpenSegment, ptr %119, i32 0, i32 2
  %121 = load i32, ptr %120, align 8
  store i32 %121, ptr %21, align 4
  %122 = load ptr, ptr %17, align 8
  %123 = getelementptr inbounds nuw %struct.XLogReaderState, ptr %122, i32 0, i32 22
  %124 = getelementptr inbounds nuw %struct.WALOpenSegment, ptr %123, i32 0, i32 1
  %125 = load i64, ptr %124, align 8
  store i64 %125, ptr %20, align 8
  %126 = getelementptr inbounds [64 x i8], ptr %26, i64 0, i64 0
  %127 = getelementptr inbounds nuw i8, ptr %126, i64 7
  %128 = load i32, ptr %21, align 4
  %129 = load i64, ptr %20, align 8
  %130 = load i32, ptr @WalSegSz, align 4
  call void @XLogFileName(ptr noundef %127, i32 noundef %128, i64 noundef %129, i32 noundef %130)
  %131 = getelementptr inbounds [64 x i8], ptr %26, i64 0, i64 0
  call void @keepwal_add_entry(ptr noundef %131)
  call void @llvm.lifetime.end.p0(i64 64, ptr %26) #8
  br label %132

132:                                              ; preds = %115, %108
  %133 = load ptr, ptr %17, align 8
  %134 = getelementptr inbounds nuw %struct.XLogReaderState, ptr %133, i32 0, i32 11
  %135 = load ptr, ptr %134, align 8
  %136 = getelementptr inbounds nuw %struct.DecodedXLogRecord, ptr %135, i32 0, i32 5
  %137 = getelementptr inbounds nuw %struct.XLogRecord, ptr %136, i32 0, i32 3
  %138 = load i8, ptr %137, align 8
  %139 = zext i8 %138 to i32
  %140 = and i32 %139, -16
  %141 = trunc i32 %140 to i8
  store i8 %141, ptr %23, align 1
  %142 = load i64, ptr %16, align 8
  %143 = load i64, ptr %9, align 8
  %144 = icmp ult i64 %142, %143
  br i1 %144, label %145, label %176

145:                                              ; preds = %132
  %146 = load ptr, ptr %17, align 8
  %147 = getelementptr inbounds nuw %struct.XLogReaderState, ptr %146, i32 0, i32 11
  %148 = load ptr, ptr %147, align 8
  %149 = getelementptr inbounds nuw %struct.DecodedXLogRecord, ptr %148, i32 0, i32 5
  %150 = getelementptr inbounds nuw %struct.XLogRecord, ptr %149, i32 0, i32 4
  %151 = load i8, ptr %150, align 1
  %152 = zext i8 %151 to i32
  %153 = icmp eq i32 %152, 0
  br i1 %153, label %154, label %176

154:                                              ; preds = %145
  %155 = load i8, ptr %23, align 1
  %156 = zext i8 %155 to i32
  %157 = icmp eq i32 %156, 0
  br i1 %157, label %162, label %158

158:                                              ; preds = %154
  %159 = load i8, ptr %23, align 1
  %160 = zext i8 %159 to i32
  %161 = icmp eq i32 %160, 16
  br i1 %161, label %162, label %176

162:                                              ; preds = %158, %154
  call void @llvm.lifetime.start.p0(i64 88, ptr %27) #8
  %163 = load ptr, ptr %17, align 8
  %164 = getelementptr inbounds nuw %struct.XLogReaderState, ptr %163, i32 0, i32 11
  %165 = load ptr, ptr %164, align 8
  %166 = getelementptr inbounds nuw %struct.DecodedXLogRecord, ptr %165, i32 0, i32 8
  %167 = load ptr, ptr %166, align 8
  call void @llvm.memcpy.p0.p0.i64(ptr align 8 %27, ptr align 1 %167, i64 88, i1 false)
  %168 = load i64, ptr %16, align 8
  %169 = load ptr, ptr %11, align 8
  store i64 %168, ptr %169, align 8
  %170 = getelementptr inbounds nuw %struct.CheckPoint, ptr %27, i32 0, i32 1
  %171 = load i32, ptr %170, align 8
  %172 = load ptr, ptr %12, align 8
  store i32 %171, ptr %172, align 4
  %173 = getelementptr inbounds nuw %struct.CheckPoint, ptr %27, i32 0, i32 0
  %174 = load i64, ptr %173, align 8
  %175 = load ptr, ptr %13, align 8
  store i64 %174, ptr %175, align 8
  store i32 4, ptr %28, align 4
  call void @llvm.lifetime.end.p0(i64 88, ptr %27) #8
  br label %180

176:                                              ; preds = %158, %145, %132
  %177 = load ptr, ptr %15, align 8
  %178 = getelementptr inbounds nuw %struct.XLogRecord, ptr %177, i32 0, i32 2
  %179 = load i64, ptr %178, align 8
  store i64 %179, ptr %16, align 8
  store i32 0, ptr %28, align 4
  br label %180

180:                                              ; preds = %176, %162
  call void @llvm.lifetime.end.p0(i64 1, ptr %23) #8
  %181 = load i32, ptr %28, align 4
  switch i32 %181, label %191 [
    i32 0, label %182
    i32 4, label %183
  ]

182:                                              ; preds = %180
  br label %65

183:                                              ; preds = %180
  %184 = load ptr, ptr %17, align 8
  call void @XLogReaderFree(ptr noundef %184)
  %185 = load i32, ptr @xlogreadfd, align 4
  %186 = icmp ne i32 %185, -1
  br i1 %186, label %187, label %190

187:                                              ; preds = %183
  %188 = load i32, ptr @xlogreadfd, align 4
  %189 = call i32 @close(i32 noundef %188)
  store i32 -1, ptr @xlogreadfd, align 4
  br label %190

190:                                              ; preds = %187, %183
  call void @llvm.lifetime.end.p0(i64 4, ptr %21) #8
  call void @llvm.lifetime.end.p0(i64 8, ptr %20) #8
  call void @llvm.lifetime.end.p0(i64 16, ptr %19) #8
  call void @llvm.lifetime.end.p0(i64 8, ptr %18) #8
  call void @llvm.lifetime.end.p0(i64 8, ptr %17) #8
  call void @llvm.lifetime.end.p0(i64 8, ptr %16) #8
  call void @llvm.lifetime.end.p0(i64 8, ptr %15) #8
  ret void

191:                                              ; preds = %180
  unreachable
}