; Function Attrs: nounwind uwtable
define dso_local void @findLastCheckpoint(ptr noundef %0, i64 noundef %1, i32 noundef %2, ptr noundef writeonly captures(none) %3, ptr noundef writeonly captures(none) %4, ptr noundef writeonly captures(none) %5, ptr noundef %6) local_unnamed_addr #0 {
  %8 = alloca ptr, align 8
  %9 = alloca %struct.XLogPageReadPrivate, align 8
  %10 = alloca %struct.XLogReaderRoutine, align 8
  %11 = alloca [64 x i8], align 16
  call void @llvm.lifetime.start.p0(i64 8, ptr nonnull %8) #7
  call void @llvm.lifetime.start.p0(i64 16, ptr nonnull %9) #7
  %12 = and i64 %1, 8191
  %13 = icmp eq i64 %12, 0
  %.pre = load i32, ptr @WalSegSz, align 4
  br i1 %13, label %14, label %23

14:                                               ; preds = %7
  %15 = add i32 %.pre, -1
  %16 = sext i32 %15 to i64
  %17 = and i64 %1, %16
  %18 = icmp eq i64 %17, 0
  br i1 %18, label %19, label %21

19:                                               ; preds = %14
  %20 = or disjoint i64 %1, 40
  br label %23

21:                                               ; preds = %14
  %22 = or disjoint i64 %1, 24
  br label %23

23:                                               ; preds = %19, %21, %7
  %.040 = phi i64 [ %20, %19 ], [ %22, %21 ], [ %1, %7 ]
  %24 = getelementptr inbounds nuw i8, ptr %9, i64 8
  store i32 %2, ptr %24, align 8
  store ptr %6, ptr %9, align 8
  store ptr @SimpleXLogPageRead, ptr %10, align 8
  %25 = getelementptr inbounds nuw i8, ptr %10, i64 8
  call void @llvm.memset.p0.i64(ptr noundef nonnull align 8 dereferenceable(16) %25, i8 0, i64 16, i1 false)
  %26 = call ptr @XLogReaderAllocate(i32 noundef %.pre, ptr noundef %0, ptr noundef nonnull %10, ptr noundef nonnull %9) #7
  %27 = icmp eq ptr %26, null
  br i1 %27, label %34, label %.preheader

.preheader:                                       ; preds = %23
  call void @XLogBeginRead(ptr noundef nonnull %26, i64 noundef %.040) #7
  %28 = call ptr @XLogReadRecord(ptr noundef nonnull %26, ptr noundef nonnull %8) #7
  %29 = icmp eq ptr %28, null
  br i1 %29, label %._crit_edge, label %.lr.ph

.lr.ph:                                           ; preds = %.preheader
  %30 = getelementptr inbounds nuw i8, ptr %26, i64 1224
  %31 = getelementptr inbounds nuw i8, ptr %26, i64 1216
  %32 = getelementptr inbounds nuw i8, ptr %11, i64 7
  %33 = getelementptr inbounds nuw i8, ptr %26, i64 104
  br label %41

34:                                               ; preds = %23
  call void (i32, i32, ptr, ...) @pg_log_generic(i32 noundef 4, i32 noundef 0, ptr noundef nonnull @.str) #7
  call void @exit(i32 noundef 1) #8
  unreachable

._crit_edge:                                      ; preds = %67, %.preheader
  %.041.lcssa = phi i64 [ %.040, %.preheader ], [ %69, %67 ]
  %35 = load ptr, ptr %8, align 8
  %.not52 = icmp eq ptr %35, null
  %36 = lshr i64 %.041.lcssa, 32
  %37 = trunc nuw i64 %36 to i32
  %38 = trunc i64 %.041.lcssa to i32
  br i1 %.not52, label %40, label %39

39:                                               ; preds = %._crit_edge
  call void (i32, i32, ptr, ...) @pg_log_generic(i32 noundef 4, i32 noundef 0, ptr noundef nonnull @.str.4, i32 noundef %37, i32 noundef %38, ptr noundef nonnull %35) #7
  call void @exit(i32 noundef 1) #8
  unreachable

40:                                               ; preds = %._crit_edge
  call void (i32, i32, ptr, ...) @pg_log_generic(i32 noundef 4, i32 noundef 0, ptr noundef nonnull @.str.5, i32 noundef %37, i32 noundef %38) #7
  call void @exit(i32 noundef 1) #8
  unreachable

41:                                               ; preds = %.lr.ph, %67
  %42 = phi ptr [ %28, %.lr.ph ], [ %70, %67 ]
  %.04160 = phi i64 [ %.040, %.lr.ph ], [ %69, %67 ]
  %.04259 = phi i64 [ 0, %.lr.ph ], [ %.143, %67 ]
  %.04458 = phi i32 [ 0, %.lr.ph ], [ %.145, %67 ]
  %43 = load i32, ptr %30, align 8
  %.not = icmp eq i32 %43, %.04458
  br i1 %.not, label %44, label %46

44:                                               ; preds = %41
  %45 = load i64, ptr %31, align 8
  %.not50 = icmp eq i64 %45, %.04259
  br i1 %.not50, label %58, label %46

46:                                               ; preds = %44, %41
  call void @llvm.lifetime.start.p0(i64 64, ptr nonnull %11) #7
  %47 = call i32 (ptr, i64, ptr, ...) @pg_snprintf(ptr noundef nonnull %11, i64 noundef 64, ptr noundef nonnull @.str.6) #7
  %48 = load i32, ptr %30, align 8
  %49 = load i64, ptr %31, align 8
  %50 = load i32, ptr @WalSegSz, align 4
  %51 = sext i32 %50 to i64
  %52 = udiv i64 4294967296, %51
  %53 = udiv i64 %49, %52
  %54 = trunc i64 %53 to i32
  %55 = urem i64 %49, %52
  %56 = trunc nuw i64 %55 to i32
  %57 = call i32 (ptr, i64, ptr, ...) @pg_snprintf(ptr noundef nonnull %32, i64 noundef 64, ptr noundef nonnull @.str.7, i32 noundef %48, i32 noundef %54, i32 noundef %56) #7
  call void @keepwal_add_entry(ptr noundef nonnull %11) #7
  call void @llvm.lifetime.end.p0(i64 64, ptr nonnull %11) #7
  br label %58

58:                                               ; preds = %46, %44
  %.145 = phi i32 [ %48, %46 ], [ %.04458, %44 ]
  %.143 = phi i64 [ %49, %46 ], [ %.04259, %44 ]
  %59 = icmp ult i64 %.04160, %.040
  br i1 %59, label %60, label %67

60:                                               ; preds = %58
  %61 = load ptr, ptr %33, align 8
  %62 = getelementptr inbounds nuw i8, ptr %61, i64 56
  %63 = load i8, ptr %62, align 8
  %64 = getelementptr inbounds nuw i8, ptr %61, i64 57
  %65 = load i8, ptr %64, align 1
  %66 = icmp eq i8 %65, 0
  %or.cond = icmp ult i8 %63, 32
  %or.cond53 = select i1 %66, i1 %or.cond, i1 false
  br i1 %or.cond53, label %72, label %67

67:                                               ; preds = %58, %60
  %68 = getelementptr inbounds nuw i8, ptr %42, i64 8
  %69 = load i64, ptr %68, align 8
  call void @XLogBeginRead(ptr noundef nonnull %26, i64 noundef %69) #7
  %70 = call ptr @XLogReadRecord(ptr noundef nonnull %26, ptr noundef nonnull %8) #7
  %71 = icmp eq ptr %70, null
  br i1 %71, label %._crit_edge, label %41

72:                                               ; preds = %60
  %73 = getelementptr inbounds nuw i8, ptr %61, i64 72
  %74 = load ptr, ptr %73, align 8
  %.sroa.0.0.copyload = load i64, ptr %74, align 1
  %.sroa.4.0..sroa_idx = getelementptr inbounds nuw i8, ptr %74, i64 8
  %.sroa.4.0.copyload = load i32, ptr %.sroa.4.0..sroa_idx, align 1
  store i64 %.04160, ptr %3, align 8
  store i32 %.sroa.4.0.copyload, ptr %4, align 4
  store i64 %.sroa.0.0.copyload, ptr %5, align 8
  call void @XLogReaderFree(ptr noundef nonnull %26) #7
  %75 = load i32, ptr @xlogreadfd, align 4
  %.not51 = icmp eq i32 %75, -1
  br i1 %.not51, label %78, label %76

76:                                               ; preds = %72
  %77 = call i32 @close(i32 noundef %75) #7
  store i32 -1, ptr @xlogreadfd, align 4
  br label %78

78:                                               ; preds = %76, %72
  call void @llvm.lifetime.end.p0(i64 16, ptr nonnull %9) #7
  call void @llvm.lifetime.end.p0(i64 8, ptr nonnull %8) #7
  ret void
}